target datalayout = "e-m:e-p270:32:32-p271:32:32-p272:64:64-i64:64-i128:128-f80:128-n8:16:32:64-S128"
target triple = "x86_64-pc-linux-gnu"

@OnigEncAsciiToLowerCaseTable = external constant [0 x i8], align 1

; Function Attrs: nounwind sspstrong uwtable
define internal i32 @utf32le_mbc_case_fold(i32 noundef %0, ptr noundef %1, ptr noundef %2, ptr noundef %3, ptr noundef %4) #0 {
  %6 = alloca i32, align 4
  %7 = alloca i32, align 4
  %8 = alloca ptr, align 8
  %9 = alloca ptr, align 8
  %10 = alloca ptr, align 8
  %11 = alloca ptr, align 8
  %12 = alloca ptr, align 8
  %13 = alloca i32, align 4
  store i32 %0, ptr %7, align 4, !tbaa !16
  store ptr %1, ptr %8, align 8, !tbaa !18
  store ptr %2, ptr %9, align 8, !tbaa !13
  store ptr %3, ptr %10, align 8, !tbaa !13
  store ptr %4, ptr %11, align 8, !tbaa !14
  call void @llvm.lifetime.start.p0(i64 8, ptr %12) #3
  %14 = load ptr, ptr %8, align 8, !tbaa !18
  %15 = load ptr, ptr %14, align 8, !tbaa !13
  store ptr %15, ptr %12, align 8, !tbaa !13
  %16 = load ptr, ptr %12, align 8, !tbaa !13
  %17 = load i8, ptr %16, align 1, !tbaa !17
  %18 = zext i8 %17 to i32
  %19 = icmp slt i32 %18, 128
  br i1 %19, label %20, label %54

20:                                               ; preds = %5
  %21 = load ptr, ptr %12, align 8, !tbaa !13
  %22 = getelementptr inbounds i8, ptr %21, i64 1
  %23 = load i8, ptr %22, align 1, !tbaa !17
  %24 = zext i8 %23 to i32
  %25 = icmp eq i32 %24, 0
  br i1 %25, label %26, label %54

26:                                               ; preds = %20
  %27 = load ptr, ptr %12, align 8, !tbaa !13
  %28 = getelementptr inbounds i8, ptr %27, i64 2
  %29 = load i8, ptr %28, align 1, !tbaa !17
  %30 = zext i8 %29 to i32
  %31 = icmp eq i32 %30, 0
  br i1 %31, label %32, label %54

32:                                               ; preds = %26
  %33 = load ptr, ptr %12, align 8, !tbaa !13
  %34 = getelementptr inbounds i8, ptr %33, i64 3
  %35 = load i8, ptr %34, align 1, !tbaa !17
  %36 = zext i8 %35 to i32
  %37 = icmp eq i32 %36, 0
  br i1 %37, label %38, label %54

38:                                               ; preds = %32
  %39 = load ptr, ptr %12, align 8, !tbaa !13
  %40 = load i8, ptr %39, align 1, !tbaa !17
  %41 = zext i8 %40 to i64
  %42 = getelementptr inbounds nuw [0 x i8], ptr @OnigEncAsciiToLowerCaseTable, i64 0, i64 %41
  %43 = load i8, ptr %42, align 1, !tbaa !17
  %44 = load ptr, ptr %10, align 8, !tbaa !13
  %45 = getelementptr inbounds nuw i8, ptr %44, i32 1
  store ptr %45, ptr %10, align 8, !tbaa !13
  store i8 %43, ptr %44, align 1, !tbaa !17
  %46 = load ptr, ptr %10, align 8, !tbaa !13
  %47 = getelementptr inbounds nuw i8, ptr %46, i32 1
  store ptr %47, ptr %10, align 8, !tbaa !13
  store i8 0, ptr %46, align 1, !tbaa !17
  %48 = load ptr, ptr %10, align 8, !tbaa !13
  %49 = getelementptr inbounds nuw i8, ptr %48, i32 1
  store ptr %49, ptr %10, align 8, !tbaa !13
  store i8 0, ptr %48, align 1, !tbaa !17
  %50 = load ptr, ptr %10, align 8, !tbaa !13
  store i8 0, ptr %50, align 1, !tbaa !17
  %51 = load ptr, ptr %8, align 8, !tbaa !18
  %52 = load ptr, ptr %51, align 8, !tbaa !13
  %53 = getelementptr inbounds i8, ptr %52, i64 4
  store ptr %53, ptr %51, align 8, !tbaa !13
  store i32 4, ptr %6, align 4
  store i32 1, ptr %13, align 4
  br label %61

54:                                               ; preds = %32, %26, %20, %5
  %55 = load ptr, ptr %11, align 8, !tbaa !14
  %56 = load i32, ptr %7, align 4, !tbaa !16
  %57 = load ptr, ptr %8, align 8, !tbaa !18
  %58 = load ptr, ptr %9, align 8, !tbaa !13
  %59 = load ptr, ptr %10, align 8, !tbaa !13
  %60 = call i32 @onigenc_unicode_mbc_case_fold(ptr noundef %55, i32 noundef %56, ptr noundef %57, ptr noundef %58, ptr noundef %59)
  store i32 %60, ptr %6, align 4
  store i32 1, ptr %13, align 4
  br label %61

61:                                               ; preds = %54, %38
  call void @llvm.lifetime.end.p0(i64 8, ptr %12) #3
  %62 = load i32, ptr %6, align 4
  ret i32 %62
}