; Function Attrs: nounwind sspstrong uwtable
define internal i32 @utf32le_mbc_case_fold(i32 noundef %0, ptr noundef %1, ptr noundef %2, ptr noundef %3, ptr noundef %4) #0 {
  %6 = load ptr, ptr %1, align 8, !tbaa !9
  %7 = load i8, ptr %6, align 1, !tbaa !6
  %8 = icmp sgt i8 %7, -1
  br i1 %8, label %9, label %30

9:                                                ; preds = %5
  %10 = getelementptr inbounds nuw i8, ptr %6, i64 1
  %11 = load i8, ptr %10, align 1, !tbaa !6
  %12 = icmp eq i8 %11, 0
  br i1 %12, label %13, label %30

13:                                               ; preds = %9
  %14 = getelementptr inbounds nuw i8, ptr %6, i64 2
  %15 = load i8, ptr %14, align 1, !tbaa !6
  %16 = icmp eq i8 %15, 0
  br i1 %16, label %17, label %30

17:                                               ; preds = %13
  %18 = getelementptr inbounds nuw i8, ptr %6, i64 3
  %19 = load i8, ptr %18, align 1, !tbaa !6
  %20 = icmp eq i8 %19, 0
  br i1 %20, label %21, label %30

21:                                               ; preds = %17
  %22 = zext nneg i8 %7 to i64
  %23 = getelementptr inbounds nuw [0 x i8], ptr @OnigEncAsciiToLowerCaseTable, i64 0, i64 %22
  %24 = load i8, ptr %23, align 1, !tbaa !6
  %25 = getelementptr inbounds nuw i8, ptr %3, i64 1
  store i8 %24, ptr %3, align 1, !tbaa !6
  %26 = getelementptr inbounds nuw i8, ptr %3, i64 2
  store i8 0, ptr %25, align 1, !tbaa !6
  %27 = getelementptr inbounds nuw i8, ptr %3, i64 3
  store i8 0, ptr %26, align 1, !tbaa !6
  store i8 0, ptr %27, align 1, !tbaa !6
  %28 = load ptr, ptr %1, align 8, !tbaa !9
  %29 = getelementptr inbounds nuw i8, ptr %28, i64 4
  store ptr %29, ptr %1, align 8, !tbaa !9
  br label %32

30:                                               ; preds = %17, %13, %9, %5
  %31 = tail call i32 @onigenc_unicode_mbc_case_fold(ptr noundef %4, i32 noundef %0, ptr noundef nonnull %1, ptr noundef %2, ptr noundef %3) #5
  br label %32

32:                                               ; preds = %30, %21
  %.0 = phi i32 [ 4, %21 ], [ %31, %30 ]
  ret i32 %.0
}